target datalayout = "e-m:e-p270:32:32-p271:32:32-p272:64:64-i64:64-i128:128-f80:128-n8:16:32:64-S128"
target triple = "x86_64-unknown-linux-gnu"

%"class.std::__shared_count" = type { ptr }
%"class.std::unique_ptr" = type { %"struct.std::__uniq_ptr_data" }
%"struct.std::__uniq_ptr_data" = type { %"class.std::__uniq_ptr_impl" }
%"class.std::__uniq_ptr_impl" = type { %"class.std::tuple" }
%"class.std::tuple" = type { %"struct.std::_Tuple_impl" }
%"struct.std::_Tuple_impl" = type { %"struct.std::_Head_base.4" }
%"struct.std::_Head_base.4" = type { ptr }
%"class.std::shared_ptr.45" = type { %"class.std::__shared_ptr.46" }
%"class.std::__shared_ptr.46" = type { ptr, %"class.std::__shared_count" }
%"class.folly::Range.44" = type { ptr, ptr }
%"class.std::_Sp_counted_base" = type { ptr, i32, i32 }

@_ZZN8facebook5velox12_GLOBAL__N_118getVectorSerdeImplEvE5serde = internal global { { { ptr } } } zeroinitializer, align 8
@_ZGVZN8facebook5velox12_GLOBAL__N_118getVectorSerdeImplEvE5serde = internal global i64 0, align 8
@__dso_handle = external hidden global i8
@__libc_single_threaded = external global i8, align 1

; Function Attrs: mustprogress nounwind uwtable
define linkonce_odr noundef nonnull align 8 dereferenceable(8) ptr @_ZNSt10_Head_baseILm0EPN8facebook5velox11VectorSerdeELb0EE7_M_headERKS4_(ptr noundef nonnull align 8 dereferenceable(8) %__b) #1 comdat align 2 {
entry:
  %__b.addr = alloca ptr, align 8
  store ptr %__b, ptr %__b.addr, align 8
  %0 = load ptr, ptr %__b.addr, align 8
  %_M_head_impl = getelementptr inbounds %"struct.std::_Head_base.4", ptr %0, i32 0, i32 0
  ret ptr %_M_head_impl
}

; Function Attrs: mustprogress nounwind uwtable
define linkonce_odr noundef nonnull align 8 dereferenceable(8) ptr @_ZNSt11_Tuple_implILm0EJPN8facebook5velox11VectorSerdeESt14default_deleteIS2_EEE7_M_headERKS6_(ptr noundef nonnull align 8 dereferenceable(8) %__t) #1 comdat align 2 {
entry:
  %__t.addr = alloca ptr, align 8
  store ptr %__t, ptr %__t.addr, align 8
  %0 = load ptr, ptr %__t.addr, align 8
  %call = call noundef nonnull align 8 dereferenceable(8) ptr @_ZNSt10_Head_baseILm0EPN8facebook5velox11VectorSerdeELb0EE7_M_headERKS4_(ptr noundef nonnull align 8 dereferenceable(8) %0) #9
  ret ptr %call
}

; Function Attrs: mustprogress nounwind uwtable
define linkonce_odr noundef nonnull align 8 dereferenceable(8) ptr @_ZSt12__get_helperILm0EPN8facebook5velox11VectorSerdeEJSt14default_deleteIS2_EEERKT0_RKSt11_Tuple_implIXT_EJS6_DpT1_EE(ptr noundef nonnull align 8 dereferenceable(8) %__t) #1 comdat {
entry:
  %__t.addr = alloca ptr, align 8
  store ptr %__t, ptr %__t.addr, align 8
  %0 = load ptr, ptr %__t.addr, align 8
  %call = call noundef nonnull align 8 dereferenceable(8) ptr @_ZNSt11_Tuple_implILm0EJPN8facebook5velox11VectorSerdeESt14default_deleteIS2_EEE7_M_headERKS6_(ptr noundef nonnull align 8 dereferenceable(8) %0) #9
  ret ptr %call
}

; Function Attrs: noreturn nounwind uwtable
define linkonce_odr hidden void @__clang_call_terminate(ptr noundef %0) #6 comdat {
  %2 = call ptr @__cxa_begin_catch(ptr %0) #9
  call void @_ZSt9terminatev() #14
  unreachable
}

; Function Attrs: mustprogress uwtable
define linkonce_odr void @_ZNSt16_Sp_counted_baseILN9__gnu_cxx12_Lock_policyE2EE15_M_add_ref_copyEv(ptr noundef nonnull align 8 dereferenceable(16) %this) #0 comdat align 2 {
entry:
  %__mem.addr.i4 = alloca ptr, align 8
  %__val.addr.i5 = alloca i32, align 4
  %.atomictmp.i = alloca i32, align 4
  %atomic-temp.i = alloca i32, align 4
  %__mem.addr.i2 = alloca ptr, align 8
  %__val.addr.i3 = alloca i32, align 4
  %__mem.addr.i = alloca ptr, align 8
  %__val.addr.i = alloca i32, align 4
  %this.addr = alloca ptr, align 8
  store ptr %this, ptr %this.addr, align 8
  %this1 = load ptr, ptr %this.addr, align 8
  %_M_use_count = getelementptr inbounds %"class.std::_Sp_counted_base", ptr %this1, i32 0, i32 1
  store ptr %_M_use_count, ptr %__mem.addr.i, align 8
  store i32 1, ptr %__val.addr.i, align 4
  %0 = load i8, ptr @__libc_single_threaded, align 1
  %tobool.i = icmp ne i8 %0, 0
  br i1 %tobool.i, label %if.then.i, label %if.else.i

if.then.i:                                        ; preds = %entry
  %1 = load ptr, ptr %__mem.addr.i, align 8
  %2 = load i32, ptr %__val.addr.i, align 4
  store ptr %1, ptr %__mem.addr.i2, align 8
  store i32 %2, ptr %__val.addr.i3, align 4
  %3 = load i32, ptr %__val.addr.i3, align 4
  %4 = load ptr, ptr %__mem.addr.i2, align 8
  %5 = load i32, ptr %4, align 4
  %add.i = add nsw i32 %5, %3
  store i32 %add.i, ptr %4, align 4
  br label %_ZN9__gnu_cxx21__atomic_add_dispatchEPii.exit

if.else.i:                                        ; preds = %entry
  %6 = load ptr, ptr %__mem.addr.i, align 8
  %7 = load i32, ptr %__val.addr.i, align 4
  store ptr %6, ptr %__mem.addr.i4, align 8
  store i32 %7, ptr %__val.addr.i5, align 4
  %8 = load ptr, ptr %__mem.addr.i4, align 8
  %9 = load i32, ptr %__val.addr.i5, align 4
  store i32 %9, ptr %.atomictmp.i, align 4
  %10 = load i32, ptr %.atomictmp.i, align 4
  %11 = atomicrmw volatile add ptr %8, i32 %10 acq_rel, align 4
  store i32 %11, ptr %atomic-temp.i, align 4
  br label %_ZN9__gnu_cxx21__atomic_add_dispatchEPii.exit

_ZN9__gnu_cxx21__atomic_add_dispatchEPii.exit:    ; preds = %if.else.i, %if.then.i
  ret void
}

; Function Attrs: mustprogress nounwind uwtable
define linkonce_odr noundef nonnull align 8 dereferenceable(8) ptr @_ZSt3getILm0EJPN8facebook5velox11VectorSerdeESt14default_deleteIS2_EEERKNSt13tuple_elementIXT_ESt5tupleIJDpT0_EEE4typeERKSA_(ptr noundef nonnull align 8 dereferenceable(8) %__t) #1 comdat {
entry:
  %__t.addr = alloca ptr, align 8
  store ptr %__t, ptr %__t.addr, align 8
  %0 = load ptr, ptr %__t.addr, align 8
  %call = call noundef nonnull align 8 dereferenceable(8) ptr @_ZSt12__get_helperILm0EPN8facebook5velox11VectorSerdeEJSt14default_deleteIS2_EEERKT0_RKSt11_Tuple_implIXT_EJS6_DpT1_EE(ptr noundef nonnull align 8 dereferenceable(8) %0) #9
  ret ptr %call
}

; Function Attrs: mustprogress nounwind uwtable
define linkonce_odr void @_ZNSt14__shared_countILN9__gnu_cxx12_Lock_policyE2EEC2ERKS2_(ptr noundef nonnull align 8 dereferenceable(8) %this, ptr noundef nonnull align 8 dereferenceable(8) %__r) unnamed_addr #1 comdat align 2 personality ptr @__gxx_personality_v0 {
entry:
  %this.addr = alloca ptr, align 8
  %__r.addr = alloca ptr, align 8
  store ptr %this, ptr %this.addr, align 8
  store ptr %__r, ptr %__r.addr, align 8
  %this1 = load ptr, ptr %this.addr, align 8
  %_M_pi = getelementptr inbounds %"class.std::__shared_count", ptr %this1, i32 0, i32 0
  %0 = load ptr, ptr %__r.addr, align 8
  %_M_pi2 = getelementptr inbounds %"class.std::__shared_count", ptr %0, i32 0, i32 0
  %1 = load ptr, ptr %_M_pi2, align 8
  store ptr %1, ptr %_M_pi, align 8
  %_M_pi3 = getelementptr inbounds %"class.std::__shared_count", ptr %this1, i32 0, i32 0
  %2 = load ptr, ptr %_M_pi3, align 8
  %cmp = icmp ne ptr %2, null
  br i1 %cmp, label %if.then, label %if.end

if.then:                                          ; preds = %entry
  %_M_pi4 = getelementptr inbounds %"class.std::__shared_count", ptr %this1, i32 0, i32 0
  %3 = load ptr, ptr %_M_pi4, align 8
  invoke void @_ZNSt16_Sp_counted_baseILN9__gnu_cxx12_Lock_policyE2EE15_M_add_ref_copyEv(ptr noundef nonnull align 8 dereferenceable(16) %3)
          to label %invoke.cont unwind label %terminate.lpad

invoke.cont:                                      ; preds = %if.then
  br label %if.end

if.end:                                           ; preds = %invoke.cont, %entry
  ret void

terminate.lpad:                                   ; preds = %if.then
  %4 = landingpad { ptr, i32 }
          catch ptr null
  %5 = extractvalue { ptr, i32 } %4, 0
  call void @__clang_call_terminate(ptr %5) #14
  unreachable
}

; Function Attrs: mustprogress nounwind uwtable
define linkonce_odr noundef ptr @_ZNKSt15__uniq_ptr_implIN8facebook5velox11VectorSerdeESt14default_deleteIS2_EE6_M_ptrEv(ptr noundef nonnull align 8 dereferenceable(8) %this) #1 comdat align 2 {
entry:
  %this.addr = alloca ptr, align 8
  store ptr %this, ptr %this.addr, align 8
  %this1 = load ptr, ptr %this.addr, align 8
  %_M_t = getelementptr inbounds %"class.std::__uniq_ptr_impl", ptr %this1, i32 0, i32 0
  %call = call noundef nonnull align 8 dereferenceable(8) ptr @_ZSt3getILm0EJPN8facebook5velox11VectorSerdeESt14default_deleteIS2_EEERKNSt13tuple_elementIXT_ESt5tupleIJDpT0_EEE4typeERKSA_(ptr noundef nonnull align 8 dereferenceable(8) %_M_t) #9
  %0 = load ptr, ptr %call, align 8
  ret ptr %0
}

; Function Attrs: mustprogress nounwind uwtable
define linkonce_odr void @_ZNSt12__shared_ptrIN8facebook5velox10BaseVectorELN9__gnu_cxx12_Lock_policyE2EEC2ERKS5_(ptr noundef nonnull align 8 dereferenceable(16) %this, ptr noundef nonnull align 8 dereferenceable(16) %0) unnamed_addr #1 comdat align 2 {
entry:
  %this.addr = alloca ptr, align 8
  %.addr = alloca ptr, align 8
  store ptr %this, ptr %this.addr, align 8
  store ptr %0, ptr %.addr, align 8
  %this1 = load ptr, ptr %this.addr, align 8
  %_M_ptr = getelementptr inbounds %"class.std::__shared_ptr.46", ptr %this1, i32 0, i32 0
  %1 = load ptr, ptr %.addr, align 8
  %_M_ptr2 = getelementptr inbounds %"class.std::__shared_ptr.46", ptr %1, i32 0, i32 0
  %2 = load ptr, ptr %_M_ptr2, align 8
  store ptr %2, ptr %_M_ptr, align 8
  %_M_refcount = getelementptr inbounds %"class.std::__shared_ptr.46", ptr %this1, i32 0, i32 1
  %3 = load ptr, ptr %.addr, align 8
  %_M_refcount3 = getelementptr inbounds %"class.std::__shared_ptr.46", ptr %3, i32 0, i32 1
  call void @_ZNSt14__shared_countILN9__gnu_cxx12_Lock_policyE2EEC2ERKS2_(ptr noundef nonnull align 8 dereferenceable(8) %_M_refcount, ptr noundef nonnull align 8 dereferenceable(8) %_M_refcount3) #9
  ret void
}

; Function Attrs: mustprogress nounwind uwtable
define linkonce_odr noundef ptr @_ZNKSt10unique_ptrIN8facebook5velox11VectorSerdeESt14default_deleteIS2_EE3getEv(ptr noundef nonnull align 8 dereferenceable(8) %this) #1 comdat align 2 {
entry:
  %this.addr = alloca ptr, align 8
  store ptr %this, ptr %this.addr, align 8
  %this1 = load ptr, ptr %this.addr, align 8
  %_M_t = getelementptr inbounds %"class.std::unique_ptr", ptr %this1, i32 0, i32 0
  %call = call noundef ptr @_ZNKSt15__uniq_ptr_implIN8facebook5velox11VectorSerdeESt14default_deleteIS2_EE6_M_ptrEv(ptr noundef nonnull align 8 dereferenceable(8) %_M_t) #9
  ret ptr %call
}

; Function Attrs: mustprogress nounwind uwtable
define internal noundef nonnull align 8 dereferenceable(8) ptr @_ZN8facebook5velox12_GLOBAL__N_118getVectorSerdeImplEv() #1 {
entry:
  %0 = load atomic i8, ptr @_ZGVZN8facebook5velox12_GLOBAL__N_118getVectorSerdeImplEvE5serde acquire, align 8
  %guard.uninitialized = icmp eq i8 %0, 0
  br i1 %guard.uninitialized, label %init.check, label %init.end, !prof !4

init.check:                                       ; preds = %entry
  %1 = call i32 @__cxa_guard_acquire(ptr @_ZGVZN8facebook5velox12_GLOBAL__N_118getVectorSerdeImplEvE5serde) #9
  %tobool = icmp ne i32 %1, 0
  br i1 %tobool, label %init, label %init.end

init:                                             ; preds = %init.check
  %2 = call i32 @__cxa_atexit(ptr @_ZNSt10unique_ptrIN8facebook5velox11VectorSerdeESt14default_deleteIS2_EED2Ev, ptr @_ZZN8facebook5velox12_GLOBAL__N_118getVectorSerdeImplEvE5serde, ptr @__dso_handle) #9
  call void @__cxa_guard_release(ptr @_ZGVZN8facebook5velox12_GLOBAL__N_118getVectorSerdeImplEvE5serde) #9
  br label %init.end

init.end:                                         ; preds = %init, %init.check, %entry
  ret ptr @_ZZN8facebook5velox12_GLOBAL__N_118getVectorSerdeImplEvE5serde
}

; Function Attrs: mustprogress nounwind uwtable
define linkonce_odr void @_ZNSt10shared_ptrIN8facebook5velox10BaseVectorEEC2ERKS3_(ptr noundef nonnull align 8 dereferenceable(16) %this, ptr noundef nonnull align 8 dereferenceable(16) %0) unnamed_addr #1 comdat align 2 {
entry:
  %this.addr = alloca ptr, align 8
  %.addr = alloca ptr, align 8
  store ptr %this, ptr %this.addr, align 8
  store ptr %0, ptr %.addr, align 8
  %this1 = load ptr, ptr %this.addr, align 8
  %1 = load ptr, ptr %.addr, align 8
  call void @_ZNSt12__shared_ptrIN8facebook5velox10BaseVectorELN9__gnu_cxx12_Lock_policyE2EEC2ERKS5_(ptr noundef nonnull align 8 dereferenceable(16) %this1, ptr noundef nonnull align 8 dereferenceable(16) %1) #9
  ret void
}

; Function Attrs: mustprogress uwtable
define noundef ptr @_ZN8facebook5velox14getVectorSerdeEv() #0 {
entry:
  %serde = alloca ptr, align 8
  %call = call noundef nonnull align 8 dereferenceable(8) ptr @_ZN8facebook5velox12_GLOBAL__N_118getVectorSerdeImplEv()
  %call1 = call noundef ptr @_ZNKSt10unique_ptrIN8facebook5velox11VectorSerdeESt14default_deleteIS2_EE3getEv(ptr noundef nonnull align 8 dereferenceable(8) %call) #9
  store ptr %call1, ptr %serde, align 8
  %0 = load ptr, ptr %serde, align 8
  %cmp = icmp ne ptr %0, null
  %lnot = xor i1 %cmp, true
  br i1 %lnot, label %if.then, label %if.end

if.then:                                          ; preds = %entry
  call void @llvm.trap()
  br label %if.end

if.end:                                           ; preds = %if.then, %entry
  %1 = load ptr, ptr %serde, align 8
  ret ptr %1
}

; Function Attrs: mustprogress uwtable
define void @_ZN8facebook5velox17VectorStreamGroup22estimateSerializedSizeESt10shared_ptrINS0_10BaseVectorEEN5folly5RangeIPKiEEPPiRNS0_7ScratchE(ptr noundef %vector, ptr %rows.coerce0, ptr %rows.coerce1, ptr noundef %sizes, ptr noundef nonnull align 8 dereferenceable(24) %scratch) #0 align 2 personality ptr @__gxx_personality_v0 {
entry:
  %rows = alloca %"class.folly::Range.44", align 8
  %vector.indirect_addr = alloca ptr, align 8
  %sizes.addr = alloca ptr, align 8
  %scratch.addr = alloca ptr, align 8
  %agg.tmp = alloca %"class.std::shared_ptr.45", align 8
  %agg.tmp1 = alloca %"class.folly::Range.44", align 8
  %exn.slot = alloca ptr, align 8
  %ehselector.slot = alloca i32, align 4
  %0 = getelementptr inbounds { ptr, ptr }, ptr %rows, i32 0, i32 0
  store ptr %rows.coerce0, ptr %0, align 8
  %1 = getelementptr inbounds { ptr, ptr }, ptr %rows, i32 0, i32 1
  store ptr %rows.coerce1, ptr %1, align 8
  store ptr %vector, ptr %vector.indirect_addr, align 8
  store ptr %sizes, ptr %sizes.addr, align 8
  store ptr %scratch, ptr %scratch.addr, align 8
  %call = call noundef ptr @_ZN8facebook5velox14getVectorSerdeEv()
  call void @_ZNSt10shared_ptrIN8facebook5velox10BaseVectorEEC2ERKS3_(ptr noundef nonnull align 8 dereferenceable(16) %agg.tmp, ptr noundef nonnull align 8 dereferenceable(16) %vector) #9
  call void @llvm.memcpy.p0.p0.i64(ptr align 8 %agg.tmp1, ptr align 8 %rows, i64 16, i1 false)
  %2 = load ptr, ptr %sizes.addr, align 8
  %3 = load ptr, ptr %scratch.addr, align 8
  %4 = getelementptr inbounds { ptr, ptr }, ptr %agg.tmp1, i32 0, i32 0
  %5 = load ptr, ptr %4, align 8
  %6 = getelementptr inbounds { ptr, ptr }, ptr %agg.tmp1, i32 0, i32 1
  %7 = load ptr, ptr %6, align 8
  %vtable = load ptr, ptr %call, align 8
  %vfn = getelementptr inbounds ptr, ptr %vtable, i64 2
  %8 = load ptr, ptr %vfn, align 8
  invoke void %8(ptr noundef nonnull align 8 dereferenceable(8) %call, ptr noundef %agg.tmp, ptr %5, ptr %7, ptr noundef %2, ptr noundef nonnull align 8 dereferenceable(24) %3)
          to label %invoke.cont unwind label %lpad

invoke.cont:                                      ; preds = %entry
  call void @_ZNSt10shared_ptrIN8facebook5velox10BaseVectorEED2Ev(ptr noundef nonnull align 8 dereferenceable(16) %agg.tmp) #9
  ret void

lpad:                                             ; preds = %entry
  %9 = landingpad { ptr, i32 }
          cleanup
  %10 = extractvalue { ptr, i32 } %9, 0
  store ptr %10, ptr %exn.slot, align 8
  %11 = extractvalue { ptr, i32 } %9, 1
  store i32 %11, ptr %ehselector.slot, align 4
  call void @_ZNSt10shared_ptrIN8facebook5velox10BaseVectorEED2Ev(ptr noundef nonnull align 8 dereferenceable(16) %agg.tmp) #9
  br label %eh.resume

eh.resume:                                        ; preds = %lpad
  %exn = load ptr, ptr %exn.slot, align 8
  %sel = load i32, ptr %ehselector.slot, align 4
  %lpad.val = insertvalue { ptr, i32 } poison, ptr %exn, 0
  %lpad.val2 = insertvalue { ptr, i32 } %lpad.val, i32 %sel, 1
  resume { ptr, i32 } %lpad.val2
}